target datalayout = "e-m:e-p270:32:32-p271:32:32-p272:64:64-i64:64-i128:128-f80:128-n8:16:32:64-S128"
target triple = "x86_64-unknown-linux-gnu"

%"class.absl::lts_20230802::Status" = type { i64 }
%"class.std::__cxx11::basic_string" = type { %"struct.std::__cxx11::basic_string<char>::_Alloc_hider", i64, %union.anon }
%"struct.std::__cxx11::basic_string<char>::_Alloc_hider" = type { ptr }
%union.anon = type { i64, [8 x i8] }
%"struct.absl::lts_20230802::status_internal::StatusRep" = type { %"struct.std::atomic", i32, %"class.std::__cxx11::basic_string", %"class.std::unique_ptr" }
%"struct.std::atomic" = type { %"struct.std::__atomic_base" }
%"struct.std::__atomic_base" = type { i32 }
%"class.std::unique_ptr" = type { %"struct.std::__uniq_ptr_data" }
%"struct.std::__uniq_ptr_data" = type { %"class.std::__uniq_ptr_impl" }
%"class.std::__uniq_ptr_impl" = type { %"class.std::tuple" }
%"class.std::tuple" = type { %"struct.std::_Tuple_impl" }
%"struct.std::_Tuple_impl" = type { %"struct.std::_Head_base.6" }
%"struct.std::_Head_base.6" = type { ptr }

@.str = private unnamed_addr constant [135 x i8] c"generated/home/dtcxzyw/WorkSpace/Projects/compilers/llvm-opt-benchmark/bench/grpc/grpc/src/core/lib/iomgr/socket_utils_common_posix.cc\00", align 1
@.str.13 = private unnamed_addr constant [23 x i8] c"check for SO_REUSEPORT\00", align 1
@_ZL22g_support_so_reuseport = internal global i32 0, align 4

; Function Attrs: mustprogress nounwind uwtable
define linkonce_odr noundef ptr @_ZN4absl12lts_202308026Status12RepToPointerEm(i64 noundef %rep) #5 comdat align 2 {
entry:
  %rep.addr = alloca i64, align 8
  store i64 %rep, ptr %rep.addr, align 8
  %0 = load i64, ptr %rep.addr, align 8
  %sub = sub i64 %0, 1
  %1 = inttoptr i64 %sub to ptr
  ret ptr %1
}

; Function Attrs: mustprogress nounwind uwtable
define linkonce_odr noundef zeroext i1 @_ZN4absl12lts_202308026Status9IsInlinedEm(i64 noundef %rep) #5 comdat align 2 {
entry:
  %rep.addr = alloca i64, align 8
  store i64 %rep, ptr %rep.addr, align 8
  %0 = load i64, ptr %rep.addr, align 8
  %and = and i64 %0, 1
  %cmp = icmp eq i64 %and, 0
  ret i1 %cmp
}

; Function Attrs: mustprogress uwtable
define linkonce_odr void @_ZN4absl12lts_202308026Status3RefEm(i64 noundef %rep) #4 comdat align 2 {
entry:
  %this.addr.i = alloca ptr, align 8
  %__i.addr.i = alloca i32, align 4
  %__m.addr.i = alloca i32, align 4
  %.atomictmp.i = alloca i32, align 4
  %atomic-temp.i = alloca i32, align 4
  %rep.addr = alloca i64, align 8
  store i64 %rep, ptr %rep.addr, align 8
  %0 = load i64, ptr %rep.addr, align 8
  %call = call noundef zeroext i1 @_ZN4absl12lts_202308026Status9IsInlinedEm(i64 noundef %0)
  br i1 %call, label %if.end, label %if.then

if.then:                                          ; preds = %entry
  %1 = load i64, ptr %rep.addr, align 8
  %call1 = call noundef ptr @_ZN4absl12lts_202308026Status12RepToPointerEm(i64 noundef %1)
  %ref = getelementptr inbounds %"struct.absl::lts_20230802::status_internal::StatusRep", ptr %call1, i32 0, i32 0
  store ptr %ref, ptr %this.addr.i, align 8
  store i32 1, ptr %__i.addr.i, align 4
  store i32 0, ptr %__m.addr.i, align 4
  %this1.i = load ptr, ptr %this.addr.i, align 8
  %2 = load i32, ptr %__m.addr.i, align 4
  %3 = load i32, ptr %__i.addr.i, align 4
  store i32 %3, ptr %.atomictmp.i, align 4
  switch i32 %2, label %monotonic.i [
    i32 1, label %acquire.i
    i32 2, label %acquire.i
    i32 3, label %release.i
    i32 4, label %acqrel.i
    i32 5, label %seqcst.i
  ]

monotonic.i:                                      ; preds = %if.then
  %4 = load i32, ptr %.atomictmp.i, align 4
  %5 = atomicrmw add ptr %this1.i, i32 %4 monotonic, align 4
  store i32 %5, ptr %atomic-temp.i, align 4
  br label %_ZNSt13__atomic_baseIiE9fetch_addEiSt12memory_order.exit

acquire.i:                                        ; preds = %if.then, %if.then
  %6 = load i32, ptr %.atomictmp.i, align 4
  %7 = atomicrmw add ptr %this1.i, i32 %6 acquire, align 4
  store i32 %7, ptr %atomic-temp.i, align 4
  br label %_ZNSt13__atomic_baseIiE9fetch_addEiSt12memory_order.exit

release.i:                                        ; preds = %if.then
  %8 = load i32, ptr %.atomictmp.i, align 4
  %9 = atomicrmw add ptr %this1.i, i32 %8 release, align 4
  store i32 %9, ptr %atomic-temp.i, align 4
  br label %_ZNSt13__atomic_baseIiE9fetch_addEiSt12memory_order.exit

acqrel.i:                                         ; preds = %if.then
  %10 = load i32, ptr %.atomictmp.i, align 4
  %11 = atomicrmw add ptr %this1.i, i32 %10 acq_rel, align 4
  store i32 %11, ptr %atomic-temp.i, align 4
  br label %_ZNSt13__atomic_baseIiE9fetch_addEiSt12memory_order.exit

seqcst.i:                                         ; preds = %if.then
  %12 = load i32, ptr %.atomictmp.i, align 4
  %13 = atomicrmw add ptr %this1.i, i32 %12 seq_cst, align 4
  store i32 %13, ptr %atomic-temp.i, align 4
  br label %_ZNSt13__atomic_baseIiE9fetch_addEiSt12memory_order.exit

_ZNSt13__atomic_baseIiE9fetch_addEiSt12memory_order.exit: ; preds = %seqcst.i, %acqrel.i, %release.i, %acquire.i, %monotonic.i
  br label %if.end

if.end:                                           ; preds = %_ZNSt13__atomic_baseIiE9fetch_addEiSt12memory_order.exit, %entry
  ret void
}

; Function Attrs: mustprogress nounwind uwtable
define linkonce_odr noundef i64 @_ZN4absl12lts_202308026Status16CodeToInlinedRepENS0_10StatusCodeE(i32 noundef %code) #5 comdat align 2 {
entry:
  %code.addr = alloca i32, align 4
  store i32 %code, ptr %code.addr, align 4
  %0 = load i32, ptr %code.addr, align 4
  %conv = sext i32 %0 to i64
  %shl = shl i64 %conv, 2
  ret i64 %shl
}

; Function Attrs: mustprogress uwtable
define linkonce_odr void @_ZN4absl12lts_202308026StatusC2ERKS1_(ptr noundef nonnull align 8 dereferenceable(8) %this, ptr noundef nonnull align 8 dereferenceable(8) %x) unnamed_addr #4 comdat align 2 {
entry:
  %this.addr = alloca ptr, align 8
  %x.addr = alloca ptr, align 8
  store ptr %this, ptr %this.addr, align 8
  store ptr %x, ptr %x.addr, align 8
  %this1 = load ptr, ptr %this.addr, align 8
  %rep_ = getelementptr inbounds %"class.absl::lts_20230802::Status", ptr %this1, i32 0, i32 0
  %0 = load ptr, ptr %x.addr, align 8
  %rep_2 = getelementptr inbounds %"class.absl::lts_20230802::Status", ptr %0, i32 0, i32 0
  %1 = load i64, ptr %rep_2, align 8
  store i64 %1, ptr %rep_, align 8
  %rep_3 = getelementptr inbounds %"class.absl::lts_20230802::Status", ptr %this1, i32 0, i32 0
  %2 = load i64, ptr %rep_3, align 8
  call void @_ZN4absl12lts_202308026Status3RefEm(i64 noundef %2)
  ret void
}

; Function Attrs: mustprogress uwtable
define linkonce_odr noundef zeroext i1 @_ZNK4absl12lts_202308026Status2okEv(ptr noundef nonnull align 8 dereferenceable(8) %this) #4 comdat align 2 {
entry:
  %this.addr = alloca ptr, align 8
  store ptr %this, ptr %this.addr, align 8
  %this1 = load ptr, ptr %this.addr, align 8
  %rep_ = getelementptr inbounds %"class.absl::lts_20230802::Status", ptr %this1, i32 0, i32 0
  %0 = load i64, ptr %rep_, align 8
  %call = call noundef i64 @_ZN4absl12lts_202308026Status16CodeToInlinedRepENS0_10StatusCodeE(i32 noundef 0)
  %cmp = icmp eq i64 %0, %call
  ret i1 %cmp
}

; Function Attrs: mustprogress uwtable
define linkonce_odr noundef zeroext i1 @_Z17grpc_log_if_errorPKcN4absl12lts_202308026StatusES0_i(ptr noundef %what, ptr noundef %error, ptr noundef %file, i32 noundef %line) #4 comdat personality ptr @__gxx_personality_v0 {
entry:
  %retval = alloca i1, align 1
  %what.addr = alloca ptr, align 8
  %error.indirect_addr = alloca ptr, align 8
  %file.addr = alloca ptr, align 8
  %line.addr = alloca i32, align 4
  %agg.tmp = alloca %"class.absl::lts_20230802::Status", align 8
  %cleanup.cond = alloca i1, align 1
  %exn.slot = alloca ptr, align 8
  %ehselector.slot = alloca i32, align 4
  store ptr %what, ptr %what.addr, align 8
  store ptr %error, ptr %error.indirect_addr, align 8
  store ptr %file, ptr %file.addr, align 8
  store i32 %line, ptr %line.addr, align 4
  %call = call noundef zeroext i1 @_ZNK4absl12lts_202308026Status2okEv(ptr noundef nonnull align 8 dereferenceable(8) %error)
  store i1 false, ptr %cleanup.cond, align 1
  br i1 %call, label %cond.true, label %cond.false

cond.true:                                        ; preds = %entry
  br label %cond.end

cond.false:                                       ; preds = %entry
  %0 = load ptr, ptr %what.addr, align 8
  call void @_ZN4absl12lts_202308026StatusC2ERKS1_(ptr noundef nonnull align 8 dereferenceable(8) %agg.tmp, ptr noundef nonnull align 8 dereferenceable(8) %error)
  store i1 true, ptr %cleanup.cond, align 1
  %1 = load ptr, ptr %file.addr, align 8
  %2 = load i32, ptr %line.addr, align 4
  %call1 = invoke noundef zeroext i1 @_Z14grpc_log_errorPKcN4absl12lts_202308026StatusES0_i(ptr noundef %0, ptr noundef %agg.tmp, ptr noundef %1, i32 noundef %2)
          to label %invoke.cont unwind label %lpad

invoke.cont:                                      ; preds = %cond.false
  br label %cond.end

cond.end:                                         ; preds = %invoke.cont, %cond.true
  %cond = phi i1 [ true, %cond.true ], [ %call1, %invoke.cont ]
  store i1 %cond, ptr %retval, align 1
  %cleanup.is_active = load i1, ptr %cleanup.cond, align 1
  br i1 %cleanup.is_active, label %cleanup.action, label %cleanup.done

cleanup.action:                                   ; preds = %cond.end
  call void @_ZN4absl12lts_202308026StatusD2Ev(ptr noundef nonnull align 8 dereferenceable(8) %agg.tmp) #3
  br label %cleanup.done

cleanup.done:                                     ; preds = %cleanup.action, %cond.end
  %3 = load i1, ptr %retval, align 1
  ret i1 %3

lpad:                                             ; preds = %cond.false
  %4 = landingpad { ptr, i32 }
          cleanup
  %5 = extractvalue { ptr, i32 } %4, 0
  store ptr %5, ptr %exn.slot, align 8
  %6 = extractvalue { ptr, i32 } %4, 1
  store i32 %6, ptr %ehselector.slot, align 4
  %cleanup.is_active2 = load i1, ptr %cleanup.cond, align 1
  br i1 %cleanup.is_active2, label %cleanup.action3, label %cleanup.done4

cleanup.action3:                                  ; preds = %lpad
  call void @_ZN4absl12lts_202308026StatusD2Ev(ptr noundef nonnull align 8 dereferenceable(8) %agg.tmp) #3
  br label %cleanup.done4

cleanup.done4:                                    ; preds = %cleanup.action3, %lpad
  br label %eh.resume

eh.resume:                                        ; preds = %cleanup.done4
  %exn = load ptr, ptr %exn.slot, align 8
  %sel = load i32, ptr %ehselector.slot, align 4
  %lpad.val = insertvalue { ptr, i32 } poison, ptr %exn, 0
  %lpad.val5 = insertvalue { ptr, i32 } %lpad.val, i32 %sel, 1
  resume { ptr, i32 } %lpad.val5
}

; Function Attrs: mustprogress uwtable
define void @_Z23probe_so_reuseport_oncev() #4 personality ptr @__gxx_personality_v0 {
entry:
  %s = alloca i32, align 4
  %agg.tmp = alloca %"class.absl::lts_20230802::Status", align 8
  %exn.slot = alloca ptr, align 8
  %ehselector.slot = alloca i32, align 4
  %call = call i32 @socket(i32 noundef 2, i32 noundef 1, i32 noundef 0) #3
  store i32 %call, ptr %s, align 4
  %0 = load i32, ptr %s, align 4
  %cmp = icmp slt i32 %0, 0
  br i1 %cmp, label %if.then, label %if.end

if.then:                                          ; preds = %entry
  %call1 = call i32 @socket(i32 noundef 10, i32 noundef 1, i32 noundef 0) #3
  store i32 %call1, ptr %s, align 4
  br label %if.end

if.end:                                           ; preds = %if.then, %entry
  %1 = load i32, ptr %s, align 4
  %cmp2 = icmp sge i32 %1, 0
  br i1 %cmp2, label %if.then3, label %if.end6

if.then3:                                         ; preds = %if.end
  %2 = load i32, ptr %s, align 4
  call void @_Z26grpc_set_socket_reuse_portii(ptr sret(%"class.absl::lts_20230802::Status") align 8 %agg.tmp, i32 noundef %2, i32 noundef 1)
  %call4 = invoke noundef zeroext i1 @_Z17grpc_log_if_errorPKcN4absl12lts_202308026StatusES0_i(ptr noundef @.str.13, ptr noundef %agg.tmp, ptr noundef @.str, i32 noundef 225)
          to label %invoke.cont unwind label %lpad

invoke.cont:                                      ; preds = %if.then3
  %conv = zext i1 %call4 to i32
  store i32 %conv, ptr @_ZL22g_support_so_reuseport, align 4
  call void @_ZN4absl12lts_202308026StatusD2Ev(ptr noundef nonnull align 8 dereferenceable(8) %agg.tmp) #3
  %3 = load i32, ptr %s, align 4
  %call5 = call i32 @close(i32 noundef %3)
  br label %if.end6

lpad:                                             ; preds = %if.then3
  %4 = landingpad { ptr, i32 }
          cleanup
  %5 = extractvalue { ptr, i32 } %4, 0
  store ptr %5, ptr %exn.slot, align 8
  %6 = extractvalue { ptr, i32 } %4, 1
  store i32 %6, ptr %ehselector.slot, align 4
  call void @_ZN4absl12lts_202308026StatusD2Ev(ptr noundef nonnull align 8 dereferenceable(8) %agg.tmp) #3
  br label %eh.resume

if.end6:                                          ; preds = %invoke.cont, %if.end
  ret void

eh.resume:                                        ; preds = %lpad
  %exn = load ptr, ptr %exn.slot, align 8
  %sel = load i32, ptr %ehselector.slot, align 4
  %lpad.val = insertvalue { ptr, i32 } poison, ptr %exn, 0
  %lpad.val7 = insertvalue { ptr, i32 } %lpad.val, i32 %sel, 1
  resume { ptr, i32 } %lpad.val7
}