; Function Attrs: mustprogress uwtable
define void @_Z23probe_so_reuseport_oncev() #3 personality ptr @__gxx_personality_v0 {
entry:
  %agg.tmp.i = alloca %"class.absl::lts_20230802::Status", align 8
  %agg.tmp = alloca %"class.absl::lts_20230802::Status", align 8
  %call = tail call i32 @socket(i32 noundef 2, i32 noundef 1, i32 noundef 0) #16
  %cmp = icmp slt i32 %call, 0
  br i1 %cmp, label %if.end, label %if.then3

if.end:                                           ; preds = %entry
  %call1 = tail call i32 @socket(i32 noundef 10, i32 noundef 1, i32 noundef 0) #16
  %cmp2 = icmp sgt i32 %call1, -1
  br i1 %cmp2, label %if.then3, label %if.end6

if.then3:                                         ; preds = %entry, %if.end
  %s.06 = phi i32 [ %call1, %if.end ], [ %call, %entry ]
  call void @_Z26grpc_set_socket_reuse_portii(ptr nonnull sret(%"class.absl::lts_20230802::Status") align 8 %agg.tmp, i32 noundef %s.06, i32 noundef 1)
  call void @llvm.lifetime.start.p0(i64 8, ptr nonnull %agg.tmp.i)
  %0 = load i64, ptr %agg.tmp, align 8
  %cmp.i.i = icmp eq i64 %0, 0
  br i1 %cmp.i.i, label %invoke.cont, label %cond.false.i

cond.false.i:                                     ; preds = %if.then3
  store i64 %0, ptr %agg.tmp.i, align 8
  %and.i.i.i.i = and i64 %0, 1
  %cmp.i.i.i.i = icmp eq i64 %and.i.i.i.i, 0
  br i1 %cmp.i.i.i.i, label %_ZN4absl12lts_202308026StatusC2ERKS1_.exit.i, label %if.then.i.i.i

if.then.i.i.i:                                    ; preds = %cond.false.i
  %sub.i.i.i.i = add nsw i64 %0, -1
  %1 = inttoptr i64 %sub.i.i.i.i to ptr
  %2 = atomicrmw add ptr %1, i32 1 monotonic, align 4
  br label %_ZN4absl12lts_202308026StatusC2ERKS1_.exit.i

_ZN4absl12lts_202308026StatusC2ERKS1_.exit.i:     ; preds = %if.then.i.i.i, %cond.false.i
  %call1.i = invoke noundef zeroext i1 @_Z14grpc_log_errorPKcN4absl12lts_202308026StatusES0_i(ptr noundef nonnull @.str.13, ptr noundef nonnull %agg.tmp.i, ptr noundef nonnull @.str, i32 noundef 225)
          to label %cleanup.action.i unwind label %lpad.i

cleanup.action.i:                                 ; preds = %_ZN4absl12lts_202308026StatusC2ERKS1_.exit.i
  %3 = load i64, ptr %agg.tmp.i, align 8
  %and.i.i.i1.i = and i64 %3, 1
  %cmp.i.i.i2.i = icmp eq i64 %and.i.i.i1.i, 0
  br i1 %cmp.i.i.i2.i, label %invoke.cont, label %if.then.i.i3.i

if.then.i.i3.i:                                   ; preds = %cleanup.action.i
  invoke void @_ZN4absl12lts_202308026Status15UnrefNonInlinedEm(i64 noundef %3)
          to label %invoke.cont unwind label %terminate.lpad.i.i

terminate.lpad.i.i:                               ; preds = %if.then.i.i3.i
  %4 = landingpad { ptr, i32 }
          catch ptr null
  %5 = extractvalue { ptr, i32 } %4, 0
  call void @__clang_call_terminate(ptr %5) #19
  unreachable

lpad.i:                                           ; preds = %_ZN4absl12lts_202308026StatusC2ERKS1_.exit.i
  %6 = landingpad { ptr, i32 }
          cleanup
  call void @_ZN4absl12lts_202308026StatusD2Ev(ptr noundef nonnull align 8 dereferenceable(8) %agg.tmp.i) #16
  call void @_ZN4absl12lts_202308026StatusD2Ev(ptr noundef nonnull align 8 dereferenceable(8) %agg.tmp) #16
  resume { ptr, i32 } %6

invoke.cont:                                      ; preds = %if.then.i.i3.i, %cleanup.action.i, %if.then3
  %cond5.i = phi i1 [ %call1.i, %cleanup.action.i ], [ %call1.i, %if.then.i.i3.i ], [ true, %if.then3 ]
  call void @llvm.lifetime.end.p0(i64 8, ptr nonnull %agg.tmp.i)
  %conv = zext i1 %cond5.i to i32
  store i32 %conv, ptr @_ZL22g_support_so_reuseport, align 4
  %7 = load i64, ptr %agg.tmp, align 8
  %and.i.i.i = and i64 %7, 1
  %cmp.i.i.i = icmp eq i64 %and.i.i.i, 0
  br i1 %cmp.i.i.i, label %_ZN4absl12lts_202308026StatusD2Ev.exit, label %if.then.i.i

if.then.i.i:                                      ; preds = %invoke.cont
  invoke void @_ZN4absl12lts_202308026Status15UnrefNonInlinedEm(i64 noundef %7)
          to label %_ZN4absl12lts_202308026StatusD2Ev.exit unwind label %terminate.lpad.i

terminate.lpad.i:                                 ; preds = %if.then.i.i
  %8 = landingpad { ptr, i32 }
          catch ptr null
  %9 = extractvalue { ptr, i32 } %8, 0
  call void @__clang_call_terminate(ptr %9) #19
  unreachable

_ZN4absl12lts_202308026StatusD2Ev.exit:           ; preds = %invoke.cont, %if.then.i.i
  %call5 = call i32 @close(i32 noundef %s.06)
  br label %if.end6

if.end6:                                          ; preds = %_ZN4absl12lts_202308026StatusD2Ev.exit, %if.end
  ret void
}